target datalayout = "e-m:e-p270:32:32-p271:32:32-p272:64:64-i64:64-i128:128-f80:128-n8:16:32:64-S128"
target triple = "x86_64-pc-linux-gnu"

%"struct.open3d::core::TensorRef" = type { ptr, i64, i64, [5 x i64], [5 x i64] }
%"class.open3d::core::Indexer" = type <{ i64, i64, [5 x %"struct.open3d::core::TensorRef"], [2 x %"struct.open3d::core::TensorRef"], [5 x i8], [2 x i8], i8, [5 x i64], [5 x i64], i64, i8, i8, [6 x i8] }>

; Function Attrs: mustprogress nounwind ssp uwtable
define noundef i64 @_ZNK6open3d4core7Indexer16NumReductionDimsEv(ptr noundef nonnull align 8 dereferenceable(842) %0) #4 align 2 {
  %2 = alloca ptr, align 8
  %3 = alloca i64, align 8
  %4 = alloca i64, align 8
  store ptr %0, ptr %2, align 8, !tbaa !4
  %5 = load ptr, ptr %2, align 8
  call void @llvm.lifetime.start.p0(i64 8, ptr %3) #27
  store i64 0, ptr %3, align 8, !tbaa !32
  call void @llvm.lifetime.start.p0(i64 8, ptr %4) #27
  store i64 0, ptr %4, align 8, !tbaa !32
  br label %6

6:                                                ; preds = %24, %1
  %7 = load i64, ptr %4, align 8, !tbaa !32
  %8 = getelementptr inbounds nuw %"class.open3d::core::Indexer", ptr %5, i32 0, i32 9
  %9 = load i64, ptr %8, align 8, !tbaa !29
  %10 = icmp slt i64 %7, %9
  br i1 %10, label %12, label %11

11:                                               ; preds = %6
  call void @llvm.lifetime.end.p0(i64 8, ptr %4) #27
  br label %27

12:                                               ; preds = %6
  %13 = getelementptr inbounds nuw %"class.open3d::core::Indexer", ptr %5, i32 0, i32 3
  %14 = getelementptr inbounds [2 x %"struct.open3d::core::TensorRef"], ptr %13, i64 0, i64 0
  %15 = getelementptr inbounds nuw %"struct.open3d::core::TensorRef", ptr %14, i32 0, i32 4
  %16 = load i64, ptr %4, align 8, !tbaa !32
  %17 = getelementptr inbounds [5 x i64], ptr %15, i64 0, i64 %16
  %18 = load i64, ptr %17, align 8, !tbaa !32
  %19 = icmp eq i64 %18, 0
  br i1 %19, label %20, label %23

20:                                               ; preds = %12
  %21 = load i64, ptr %3, align 8, !tbaa !32
  %22 = add nsw i64 %21, 1
  store i64 %22, ptr %3, align 8, !tbaa !32
  br label %23

23:                                               ; preds = %20, %12
  br label %24

24:                                               ; preds = %23
  %25 = load i64, ptr %4, align 8, !tbaa !32
  %26 = add nsw i64 %25, 1
  store i64 %26, ptr %4, align 8, !tbaa !32
  br label %6, !llvm.loop !916

27:                                               ; preds = %11
  %28 = load i64, ptr %3, align 8, !tbaa !32
  call void @llvm.lifetime.end.p0(i64 8, ptr %3) #27
  ret i64 %28
}